target datalayout = "e-m:e-p270:32:32-p271:32:32-p272:64:64-i64:64-i128:128-f80:128-n8:16:32:64-S128"
target triple = "x86_64-pc-linux-gnu"

%struct.Agobj_s = type { %struct.Agtag_s, ptr }
%struct.Agtag_s = type { i32, i64 }
%struct.Agraphinfo_t = type { %struct.Agrec_s, ptr, ptr, %struct.boxf, [4 x %struct.pointf_s], i8, i8, i8, i8, i32, double, double, i16, ptr, ptr, ptr, ptr, i32, ptr, ptr, ptr, ptr, i16, i16, i32, ptr, ptr, ptr, ptr, ptr, i32, ptr, ptr, %struct.nlist_t, ptr, ptr, i32, i32, i8, i8, i32, i32, i32, ptr, ptr, ptr, ptr, i8, i8, i8, i8, i8 }
%struct.Agrec_s = type { ptr, ptr }
%struct.boxf = type { %struct.pointf_s, %struct.pointf_s }
%struct.pointf_s = type { double, double }
%struct.nlist_t = type { ptr, i64 }
%struct.Agnodeinfo_t = type { %struct.Agrec_s, ptr, ptr, %struct.pointf_s, double, double, %struct.boxf, double, double, double, double, double, ptr, ptr, ptr, i8, i8, i8, i8, i32, i32, i32, ptr, double, i8, i8, ptr, ptr, i8, i64, i8, i8, i8, ptr, ptr, %struct.elist, %struct.elist, %struct.elist, %struct.elist, %struct.elist, ptr, i32, ptr, i32, i32, double, %struct.elist, %struct.elist, %struct.elist, %struct.elist, ptr, i32, i32, i32, [1 x double] }
%struct.elist = type { ptr, i64 }

@stderr = external global ptr, align 8
@.str.9 = private unnamed_addr constant [58 x i8] c"integer overflow when trying to allocate %zu * %zu bytes\0A\00", align 1
@.str.10 = private unnamed_addr constant [49 x i8] c"out of memory when trying to allocate %zu bytes\0A\00", align 1
@Last_node = internal global ptr null, align 8

; Function Attrs: inlinehint nounwind uwtable
define internal ptr @gv_calloc(i64 noundef %0, i64 noundef %1) #3 {
  %3 = alloca i64, align 8
  %4 = alloca i64, align 8
  %5 = alloca ptr, align 8
  store i64 %0, ptr %3, align 8, !tbaa !47
  store i64 %1, ptr %4, align 8, !tbaa !47
  %6 = load i64, ptr %3, align 8, !tbaa !47
  %7 = icmp ugt i64 %6, 0
  br i1 %7, label %8, label %18

8:                                                ; preds = %2
  %9 = load i64, ptr %3, align 8, !tbaa !47
  %10 = udiv i64 -1, %9
  %11 = load i64, ptr %4, align 8, !tbaa !47
  %12 = icmp ult i64 %10, %11
  br i1 %12, label %13, label %18

13:                                               ; preds = %8
  %14 = load ptr, ptr @stderr, align 8, !tbaa !56
  %15 = load i64, ptr %3, align 8, !tbaa !47
  %16 = load i64, ptr %4, align 8, !tbaa !47
  %17 = call i32 (ptr, ptr, ...) @fprintf(ptr noundef %14, ptr noundef @.str.9, i64 noundef %15, i64 noundef %16) #13
  call void @graphviz_exit(i32 noundef 1) #15
  unreachable

18:                                               ; preds = %8, %2
  call void @llvm.lifetime.start.p0(i64 8, ptr %5) #13
  %19 = load i64, ptr %3, align 8, !tbaa !47
  %20 = load i64, ptr %4, align 8, !tbaa !47
  %21 = call noalias ptr @calloc(i64 noundef %19, i64 noundef %20) #18
  store ptr %21, ptr %5, align 8, !tbaa !114
  %22 = load i64, ptr %3, align 8, !tbaa !47
  %23 = icmp ugt i64 %22, 0
  br i1 %23, label %24, label %36

24:                                               ; preds = %18
  %25 = load i64, ptr %4, align 8, !tbaa !47
  %26 = icmp ugt i64 %25, 0
  br i1 %26, label %27, label %36

27:                                               ; preds = %24
  %28 = load ptr, ptr %5, align 8, !tbaa !114
  %29 = icmp eq ptr %28, null
  br i1 %29, label %30, label %36

30:                                               ; preds = %27
  %31 = load ptr, ptr @stderr, align 8, !tbaa !56
  %32 = load i64, ptr %3, align 8, !tbaa !47
  %33 = load i64, ptr %4, align 8, !tbaa !47
  %34 = mul i64 %32, %33
  %35 = call i32 (ptr, ptr, ...) @fprintf(ptr noundef %31, ptr noundef @.str.10, i64 noundef %34) #13
  call void @graphviz_exit(i32 noundef 1) #15
  unreachable

36:                                               ; preds = %27, %24, %18
  %37 = load ptr, ptr %5, align 8, !tbaa !114
  call void @llvm.lifetime.end.p0(i64 8, ptr %5) #13
  ret ptr %37
}

; Function Attrs: nounwind uwtable
define internal ptr @makeXnode(ptr noundef %0, ptr noundef %1) #0 {
  %3 = alloca ptr, align 8
  %4 = alloca ptr, align 8
  %5 = alloca ptr, align 8
  store ptr %0, ptr %3, align 8, !tbaa !3
  store ptr %1, ptr %4, align 8, !tbaa !46
  call void @llvm.lifetime.start.p0(i64 8, ptr %5) #13
  %6 = load ptr, ptr %3, align 8, !tbaa !3
  %7 = load ptr, ptr %4, align 8, !tbaa !46
  %8 = call ptr @agnode(ptr noundef %6, ptr noundef %7, i32 noundef 1)
  store ptr %8, ptr %5, align 8, !tbaa !8
  br label %9

9:                                                ; preds = %2
  %10 = load ptr, ptr %5, align 8, !tbaa !8
  %11 = getelementptr inbounds nuw %struct.Agobj_s, ptr %10, i32 0, i32 1
  %12 = load ptr, ptr %11, align 8, !tbaa !10
  %13 = getelementptr inbounds nuw %struct.Agnodeinfo_t, ptr %12, i32 0, i32 35
  %14 = getelementptr inbounds nuw %struct.elist, ptr %13, i32 0, i32 1
  store i64 0, ptr %14, align 8, !tbaa !83
  %15 = call ptr @gv_calloc(i64 noundef 5, i64 noundef 8)
  %16 = load ptr, ptr %5, align 8, !tbaa !8
  %17 = getelementptr inbounds nuw %struct.Agobj_s, ptr %16, i32 0, i32 1
  %18 = load ptr, ptr %17, align 8, !tbaa !10
  %19 = getelementptr inbounds nuw %struct.Agnodeinfo_t, ptr %18, i32 0, i32 35
  %20 = getelementptr inbounds nuw %struct.elist, ptr %19, i32 0, i32 0
  store ptr %15, ptr %20, align 8, !tbaa !79
  br label %21

21:                                               ; preds = %9
  br label %22

22:                                               ; preds = %21
  br label %23

23:                                               ; preds = %22
  %24 = load ptr, ptr %5, align 8, !tbaa !8
  %25 = getelementptr inbounds nuw %struct.Agobj_s, ptr %24, i32 0, i32 1
  %26 = load ptr, ptr %25, align 8, !tbaa !10
  %27 = getelementptr inbounds nuw %struct.Agnodeinfo_t, ptr %26, i32 0, i32 36
  %28 = getelementptr inbounds nuw %struct.elist, ptr %27, i32 0, i32 1
  store i64 0, ptr %28, align 8, !tbaa !81
  %29 = call ptr @gv_calloc(i64 noundef 5, i64 noundef 8)
  %30 = load ptr, ptr %5, align 8, !tbaa !8
  %31 = getelementptr inbounds nuw %struct.Agobj_s, ptr %30, i32 0, i32 1
  %32 = load ptr, ptr %31, align 8, !tbaa !10
  %33 = getelementptr inbounds nuw %struct.Agnodeinfo_t, ptr %32, i32 0, i32 36
  %34 = getelementptr inbounds nuw %struct.elist, ptr %33, i32 0, i32 0
  store ptr %29, ptr %34, align 8, !tbaa !77
  br label %35

35:                                               ; preds = %23
  br label %36

36:                                               ; preds = %35
  %37 = load ptr, ptr @Last_node, align 8, !tbaa !8
  %38 = icmp ne ptr %37, null
  br i1 %38, label %39, label %50

39:                                               ; preds = %36
  %40 = load ptr, ptr @Last_node, align 8, !tbaa !8
  %41 = load ptr, ptr %5, align 8, !tbaa !8
  %42 = getelementptr inbounds nuw %struct.Agobj_s, ptr %41, i32 0, i32 1
  %43 = load ptr, ptr %42, align 8, !tbaa !10
  %44 = getelementptr inbounds nuw %struct.Agnodeinfo_t, ptr %43, i32 0, i32 34
  store ptr %40, ptr %44, align 8, !tbaa !156
  %45 = load ptr, ptr %5, align 8, !tbaa !8
  %46 = load ptr, ptr @Last_node, align 8, !tbaa !8
  %47 = getelementptr inbounds nuw %struct.Agobj_s, ptr %46, i32 0, i32 1
  %48 = load ptr, ptr %47, align 8, !tbaa !10
  %49 = getelementptr inbounds nuw %struct.Agnodeinfo_t, ptr %48, i32 0, i32 33
  store ptr %45, ptr %49, align 8, !tbaa !89
  br label %60

50:                                               ; preds = %36
  %51 = load ptr, ptr %5, align 8, !tbaa !8
  %52 = getelementptr inbounds nuw %struct.Agobj_s, ptr %51, i32 0, i32 1
  %53 = load ptr, ptr %52, align 8, !tbaa !10
  %54 = getelementptr inbounds nuw %struct.Agnodeinfo_t, ptr %53, i32 0, i32 34
  store ptr null, ptr %54, align 8, !tbaa !156
  %55 = load ptr, ptr %5, align 8, !tbaa !8
  %56 = load ptr, ptr %3, align 8, !tbaa !3
  %57 = getelementptr inbounds nuw %struct.Agobj_s, ptr %56, i32 0, i32 1
  %58 = load ptr, ptr %57, align 8, !tbaa !10
  %59 = getelementptr inbounds nuw %struct.Agraphinfo_t, ptr %58, i32 0, i32 27
  store ptr %55, ptr %59, align 8, !tbaa !50
  br label %60

60:                                               ; preds = %50, %39
  %61 = load ptr, ptr %5, align 8, !tbaa !8
  store ptr %61, ptr @Last_node, align 8, !tbaa !8
  %62 = load ptr, ptr %5, align 8, !tbaa !8
  %63 = getelementptr inbounds nuw %struct.Agobj_s, ptr %62, i32 0, i32 1
  %64 = load ptr, ptr %63, align 8, !tbaa !10
  %65 = getelementptr inbounds nuw %struct.Agnodeinfo_t, ptr %64, i32 0, i32 33
  store ptr null, ptr %65, align 8, !tbaa !89
  %66 = load ptr, ptr %5, align 8, !tbaa !8
  call void @llvm.lifetime.end.p0(i64 8, ptr %5) #13
  ret ptr %66
}