; Function Attrs: nounwind uwtable
define internal fastcc ptr @makeXnode(ptr noundef %0, ptr noundef %1) unnamed_addr #0 {
  %3 = tail call ptr @agnode(ptr noundef %0, ptr noundef %1, i32 noundef 1) #15
  %4 = getelementptr inbounds nuw i8, ptr %3, i64 16
  %5 = load ptr, ptr %4, align 8, !tbaa !3
  %6 = getelementptr inbounds nuw i8, ptr %5, i64 264
  store i64 0, ptr %6, align 8, !tbaa !79
  %7 = tail call noalias dereferenceable_or_null(40) ptr @calloc(i64 noundef 5, i64 noundef 8) #16
  %8 = icmp eq ptr %7, null
  br i1 %8, label %9, label %gv_calloc.exit

9:                                                ; preds = %2
  %10 = load ptr, ptr @stderr, align 8, !tbaa !80
  %11 = tail call i32 (ptr, ptr, ...) @fprintf(ptr noundef %10, ptr noundef nonnull @.str.10, i64 noundef 40) #17
  tail call fastcc void @graphviz_exit() #18
  unreachable

gv_calloc.exit:                                   ; preds = %2
  %12 = getelementptr inbounds nuw i8, ptr %5, i64 256
  store ptr %7, ptr %12, align 8, !tbaa !82
  %13 = getelementptr inbounds nuw i8, ptr %5, i64 280
  store i64 0, ptr %13, align 8, !tbaa !83
  %14 = tail call noalias dereferenceable_or_null(40) ptr @calloc(i64 noundef 5, i64 noundef 8) #16
  %15 = icmp eq ptr %14, null
  br i1 %15, label %16, label %gv_calloc.exit14

16:                                               ; preds = %gv_calloc.exit
  %17 = load ptr, ptr @stderr, align 8, !tbaa !80
  %18 = tail call i32 (ptr, ptr, ...) @fprintf(ptr noundef %17, ptr noundef nonnull @.str.10, i64 noundef 40) #17
  tail call fastcc void @graphviz_exit() #18
  unreachable

gv_calloc.exit14:                                 ; preds = %gv_calloc.exit
  %19 = getelementptr inbounds nuw i8, ptr %5, i64 272
  store ptr %14, ptr %19, align 8, !tbaa !84
  %20 = load ptr, ptr @Last_node, align 8, !tbaa !45
  %.not = icmp eq ptr %20, null
  %. = select i1 %.not, ptr %0, ptr %20
  %.18 = select i1 %.not, i64 256, i64 240
  %21 = getelementptr inbounds nuw i8, ptr %., i64 16
  %22 = load ptr, ptr %21, align 8, !tbaa !3
  %23 = getelementptr inbounds nuw i8, ptr %22, i64 %.18
  store ptr %3, ptr %23, align 8, !tbaa !45
  %24 = getelementptr inbounds nuw i8, ptr %5, i64 248
  store ptr %20, ptr %24, align 8, !tbaa !85
  store ptr %3, ptr @Last_node, align 8, !tbaa !45
  %25 = getelementptr inbounds nuw i8, ptr %5, i64 240
  store ptr null, ptr %25, align 8, !tbaa !86
  ret ptr %3
}